; ModuleID = '5/1093.c'
source_filename = "5/1093.c"
target datalayout = "e-m:e-p270:32:32-p271:32:32-p272:64:64-i64:64-f80:128-n8:16:32:64-S128"
target triple = "x86_64-pc-linux-gnu"

@.str = private unnamed_addr constant [6 x i8] c"error\00", align 1
@.str.1 = private unnamed_addr constant [4 x i8] c"yes\00", align 1
@.str.2 = private unnamed_addr constant [3 x i8] c"no\00", align 1

; Function Attrs: noinline nounwind uwtable
define dso_local i32 @main() #0 {
  %1 = alloca i32, align 4
  %2 = alloca i32, align 4
  %3 = alloca i32, align 4
  %4 = alloca i32, align 4
  %5 = alloca i32, align 4
  %6 = alloca i32, align 4
  %7 = alloca float, align 4
  %8 = alloca float, align 4
  %9 = alloca float, align 4
  %10 = alloca [2 x [500 x i8]], align 16
  %11 = alloca [10 x i8], align 1
  store i32 0, i32* %1, align 4
  store i32 0, i32* %6, align 4
  store float 0.000000e+00, float* %9, align 4
  %12 = getelementptr inbounds [10 x i8], [10 x i8]* %11, i64 0, i64 0
  %13 = call i32 (i8*, ...) bitcast (i32 (...)* @gets to i32 (i8*, ...)*)(i8* %12)
  %14 = getelementptr inbounds [10 x i8], [10 x i8]* %11, i64 0, i64 0
  %15 = call double @atof(i8* %14) #3
  %16 = fptrunc double %15 to float
  store float %16, float* %7, align 4
  store i32 0, i32* %2, align 4
  br label %17

17:                                               ; preds = %26, %0
  %18 = load i32, i32* %2, align 4
  %19 = icmp slt i32 %18, 2
  br i1 %19, label %20, label %29

20:                                               ; preds = %17
  %21 = load i32, i32* %2, align 4
  %22 = sext i32 %21 to i64
  %23 = getelementptr inbounds [2 x [500 x i8]], [2 x [500 x i8]]* %10, i64 0, i64 %22
  %24 = getelementptr inbounds [500 x i8], [500 x i8]* %23, i64 0, i64 0
  %25 = call i32 (i8*, ...) bitcast (i32 (...)* @gets to i32 (i8*, ...)*)(i8* %24)
  br label %26

26:                                               ; preds = %20
  %27 = load i32, i32* %2, align 4
  %28 = add nsw i32 %27, 1
  store i32 %28, i32* %2, align 4
  br label %17

29:                                               ; preds = %17
  %30 = getelementptr inbounds [2 x [500 x i8]], [2 x [500 x i8]]* %10, i64 0, i64 0
  %31 = getelementptr inbounds [500 x i8], [500 x i8]* %30, i64 0, i64 0
  %32 = call i64 @strlen(i8* %31) #3
  %33 = trunc i64 %32 to i32
  store i32 %33, i32* %4, align 4
  %34 = getelementptr inbounds [2 x [500 x i8]], [2 x [500 x i8]]* %10, i64 0, i64 1
  %35 = getelementptr inbounds [500 x i8], [500 x i8]* %34, i64 0, i64 0
  %36 = call i64 @strlen(i8* %35) #3
  %37 = trunc i64 %36 to i32
  store i32 %37, i32* %5, align 4
  %38 = load i32, i32* %4, align 4
  %39 = load i32, i32* %5, align 4
  %40 = icmp ne i32 %38, %39
  br i1 %40, label %41, label %43

41:                                               ; preds = %29
  %42 = call i32 (i8*, ...) @printf(i8* getelementptr inbounds ([6 x i8], [6 x i8]* @.str, i64 0, i64 0))
  br label %159

43:                                               ; preds = %29
  store i32 0, i32* %2, align 4
  br label %44

44:                                               ; preds = %104, %43
  %45 = load i32, i32* %2, align 4
  %46 = icmp slt i32 %45, 2
  br i1 %46, label %47, label %107

47:                                               ; preds = %44
  store i32 0, i32* %3, align 4
  br label %48

48:                                               ; preds = %100, %47
  %49 = load i32, i32* %2, align 4
  %50 = sext i32 %49 to i64
  %51 = getelementptr inbounds [2 x [500 x i8]], [2 x [500 x i8]]* %10, i64 0, i64 %50
  %52 = load i32, i32* %3, align 4
  %53 = sext i32 %52 to i64
  %54 = getelementptr inbounds [500 x i8], [500 x i8]* %51, i64 0, i64 %53
  %55 = load i8, i8* %54, align 1
  %56 = sext i8 %55 to i32
  %57 = icmp ne i32 %56, 0
  br i1 %57, label %58, label %103

58:                                               ; preds = %48
  %59 = load i32, i32* %2, align 4
  %60 = sext i32 %59 to i64
  %61 = getelementptr inbounds [2 x [500 x i8]], [2 x [500 x i8]]* %10, i64 0, i64 %60
  %62 = load i32, i32* %3, align 4
  %63 = sext i32 %62 to i64
  %64 = getelementptr inbounds [500 x i8], [500 x i8]* %61, i64 0, i64 %63
  %65 = load i8, i8* %64, align 1
  %66 = sext i8 %65 to i32
  %67 = icmp ne i32 %66, 65
  br i1 %67, label %68, label %99

68:                                               ; preds = %58
  %69 = load i32, i32* %2, align 4
  %70 = sext i32 %69 to i64
  %71 = getelementptr inbounds [2 x [500 x i8]], [2 x [500 x i8]]* %10, i64 0, i64 %70
  %72 = load i32, i32* %3, align 4
  %73 = sext i32 %72 to i64
  %74 = getelementptr inbounds [500 x i8], [500 x i8]* %71, i64 0, i64 %73
  %75 = load i8, i8* %74, align 1
  %76 = sext i8 %75 to i32
  %77 = icmp ne i32 %76, 71
  br i1 %77, label %78, label %99

78:                                               ; preds = %68
  %79 = load i32, i32* %2, align 4
  %80 = sext i32 %79 to i64
  %81 = getelementptr inbounds [2 x [500 x i8]], [2 x [500 x i8]]* %10, i64 0, i64 %80
  %82 = load i32, i32* %3, align 4
  %83 = sext i32 %82 to i64
  %84 = getelementptr inbounds [500 x i8], [500 x i8]* %81, i64 0, i64 %83
  %85 = load i8, i8* %84, align 1
  %86 = sext i8 %85 to i32
  %87 = icmp ne i32 %86, 67
  br i1 %87, label %88, label %99

88:                                               ; preds = %78
  %89 = load i32, i32* %2, align 4
  %90 = sext i32 %89 to i64
  %91 = getelementptr inbounds [2 x [500 x i8]], [2 x [500 x i8]]* %10, i64 0, i64 %90
  %92 = load i32, i32* %3, align 4
  %93 = sext i32 %92 to i64
  %94 = getelementptr inbounds [500 x i8], [500 x i8]* %91, i64 0, i64 %93
  %95 = load i8, i8* %94, align 1
  %96 = sext i8 %95 to i32
  %97 = icmp ne i32 %96, 84
  br i1 %97, label %98, label %99

98:                                               ; preds = %88
  store i32 1, i32* %6, align 4
  br label %99

99:                                               ; preds = %98, %88, %78, %68, %58
  br label %100

100:                                              ; preds = %99
  %101 = load i32, i32* %3, align 4
  %102 = add nsw i32 %101, 1
  store i32 %102, i32* %3, align 4
  br label %48

103:                                              ; preds = %48
  br label %104

104:                                              ; preds = %103
  %105 = load i32, i32* %2, align 4
  %106 = add nsw i32 %105, 1
  store i32 %106, i32* %2, align 4
  br label %44

107:                                              ; preds = %44
  %108 = load i32, i32* %6, align 4
  %109 = icmp eq i32 %108, 0
  br i1 %109, label %110, label %156

110:                                              ; preds = %107
  store i32 0, i32* %2, align 4
  br label %111

111:                                              ; preds = %137, %110
  %112 = getelementptr inbounds [2 x [500 x i8]], [2 x [500 x i8]]* %10, i64 0, i64 0
  %113 = load i32, i32* %2, align 4
  %114 = sext i32 %113 to i64
  %115 = getelementptr inbounds [500 x i8], [500 x i8]* %112, i64 0, i64 %114
  %116 = load i8, i8* %115, align 1
  %117 = sext i8 %116 to i32
  %118 = icmp ne i32 %117, 0
  br i1 %118, label %119, label %140

119:                                              ; preds = %111
  %120 = getelementptr inbounds [2 x [500 x i8]], [2 x [500 x i8]]* %10, i64 0, i64 0
  %121 = load i32, i32* %2, align 4
  %122 = sext i32 %121 to i64
  %123 = getelementptr inbounds [500 x i8], [500 x i8]* %120, i64 0, i64 %122
  %124 = load i8, i8* %123, align 1
  %125 = sext i8 %124 to i32
  %126 = getelementptr inbounds [2 x [500 x i8]], [2 x [500 x i8]]* %10, i64 0, i64 1
  %127 = load i32, i32* %2, align 4
  %128 = sext i32 %127 to i64
  %129 = getelementptr inbounds [500 x i8], [500 x i8]* %126, i64 0, i64 %128
  %130 = load i8, i8* %129, align 1
  %131 = sext i8 %130 to i32
  %132 = icmp eq i32 %125, %131
  br i1 %132, label %133, label %136

133:                                              ; preds = %119
  %134 = load float, float* %9, align 4
  %135 = fadd float %134, 1.000000e+00
  store float %135, float* %9, align 4
  br label %136

136:                                              ; preds = %133, %119
  br label %137

137:                                              ; preds = %136
  %138 = load i32, i32* %2, align 4
  %139 = add nsw i32 %138, 1
  store i32 %139, i32* %2, align 4
  br label %111

140:                                              ; preds = %111
  %141 = load float, float* %9, align 4
  %142 = fpext float %141 to double
  %143 = load i32, i32* %4, align 4
  %144 = sitofp i32 %143 to double
  %145 = fmul double %144, 1.000000e+00
  %146 = fdiv double %142, %145
  %147 = fptrunc double %146 to float
  store float %147, float* %8, align 4
  %148 = load float, float* %8, align 4
  %149 = load float, float* %7, align 4
  %150 = fcmp ogt float %148, %149
  br i1 %150, label %151, label %153

151:                                              ; preds = %140
  %152 = call i32 (i8*, ...) @printf(i8* getelementptr inbounds ([4 x i8], [4 x i8]* @.str.1, i64 0, i64 0))
  br label %155

153:                                              ; preds = %140
  %154 = call i32 (i8*, ...) @printf(i8* getelementptr inbounds ([3 x i8], [3 x i8]* @.str.2, i64 0, i64 0))
  br label %155

155:                                              ; preds = %153, %151
  br label %158

156:                                              ; preds = %107
  %157 = call i32 (i8*, ...) @printf(i8* getelementptr inbounds ([6 x i8], [6 x i8]* @.str, i64 0, i64 0))
  br label %158

158:                                              ; preds = %156, %155
  br label %159

159:                                              ; preds = %158, %41
  ret i32 0
}

declare dso_local i32 @gets(...) #1

; Function Attrs: nounwind readonly
declare dso_local double @atof(i8*) #2

; Function Attrs: nounwind readonly
declare dso_local i64 @strlen(i8*) #2

declare dso_local i32 @printf(i8*, ...) #1


!llvm.module.flags = !{!0}
!llvm.ident = !{!1}

!0 = !{i32 1, !"wchar_size", i32 4}
!1 = !{!"clang version 10.0.0-4ubuntu1 "}
